target datalayout = "e-m:e-p270:32:32-p271:32:32-p272:64:64-i64:64-i128:128-f80:128-n8:16:32:64-S128"
target triple = "x86_64-pc-linux-gnu"

%"class.llvm::StringRef" = type { ptr, i64 }
%"class.llvm::MemoryBufferRef" = type { %"class.llvm::StringRef", %"class.llvm::StringRef" }
%"struct.llvm::object::WasmSection" = type <{ i32, i32, %"class.llvm::StringRef", i32, [4 x i8], %"class.llvm::ArrayRef", %"class.std::vector.102", %"class.std::optional.107", [6 x i8] }>
%"class.llvm::ArrayRef" = type { ptr, i64 }
%"class.std::vector.102" = type { %"struct.std::_Vector_base.103" }
%"struct.std::_Vector_base.103" = type { %"struct.std::_Vector_base<llvm::wasm::WasmRelocation, std::allocator<llvm::wasm::WasmRelocation>>::_Vector_impl" }
%"struct.std::_Vector_base<llvm::wasm::WasmRelocation, std::allocator<llvm::wasm::WasmRelocation>>::_Vector_impl" = type { %"struct.std::_Vector_base<llvm::wasm::WasmRelocation, std::allocator<llvm::wasm::WasmRelocation>>::_Vector_impl_data" }
%"struct.std::_Vector_base<llvm::wasm::WasmRelocation, std::allocator<llvm::wasm::WasmRelocation>>::_Vector_impl_data" = type { ptr, ptr, ptr }
%"class.std::optional.107" = type { %"struct.std::_Optional_base.108" }
%"struct.std::_Optional_base.108" = type { %"struct.std::_Optional_payload.110" }
%"struct.std::_Optional_payload.110" = type { %"struct.std::_Optional_payload_base.111" }
%"struct.std::_Optional_payload_base.111" = type { %"union.std::_Optional_payload_base<unsigned char>::_Storage", i8 }
%"union.std::_Optional_payload_base<unsigned char>::_Storage" = type { %"struct.std::_Optional_payload_base<unsigned char>::_Empty_byte" }
%"struct.std::_Optional_payload_base<unsigned char>::_Empty_byte" = type { i8 }
%"class.llvm::object::WasmObjectFile" = type <{ %"class.llvm::object::ObjectFile", %"struct.llvm::wasm::WasmObjectHeader", %"class.std::vector", %"struct.llvm::wasm::WasmDylinkInfo", %"struct.llvm::wasm::WasmProducerInfo", %"class.std::vector.24", %"class.std::vector.29", %"class.std::vector.34", %"class.std::vector.39", %"class.std::vector.44", %"class.std::vector.49", %"class.std::vector.54", %"class.std::vector.59", %"class.std::vector.64", %"class.std::vector.69", %"class.std::optional.74", %"class.std::vector.82", %"class.std::vector.87", %"class.std::vector.92", i32, i8, i8, i8, i8, %"struct.llvm::wasm::WasmLinkingData", i32, i32, i32, i32, i32, i32, i32, i32, i32, [4 x i8] }>
%"class.llvm::object::ObjectFile" = type { %"class.llvm::object::SymbolicFile" }
%"class.llvm::object::SymbolicFile" = type { %"class.llvm::object::Binary" }
%"class.llvm::object::Binary" = type { ptr, i32, %"class.llvm::MemoryBufferRef" }
%"struct.llvm::wasm::WasmObjectHeader" = type <{ %"class.llvm::StringRef", i32, [4 x i8] }>
%"class.std::vector" = type { %"struct.std::_Vector_base" }
%"struct.std::_Vector_base" = type { %"struct.std::_Vector_base<llvm::object::WasmSection, std::allocator<llvm::object::WasmSection>>::_Vector_impl" }
%"struct.std::_Vector_base<llvm::object::WasmSection, std::allocator<llvm::object::WasmSection>>::_Vector_impl" = type { %"struct.std::_Vector_base<llvm::object::WasmSection, std::allocator<llvm::object::WasmSection>>::_Vector_impl_data" }
%"struct.std::_Vector_base<llvm::object::WasmSection, std::allocator<llvm::object::WasmSection>>::_Vector_impl_data" = type { ptr, ptr, ptr }
%"struct.llvm::wasm::WasmDylinkInfo" = type { i32, i32, i32, i32, %"class.std::vector.4", %"class.std::vector.9", %"class.std::vector.14" }
%"class.std::vector.4" = type { %"struct.std::_Vector_base.5" }
%"struct.std::_Vector_base.5" = type { %"struct.std::_Vector_base<llvm::StringRef, std::allocator<llvm::StringRef>>::_Vector_impl" }
%"struct.std::_Vector_base<llvm::StringRef, std::allocator<llvm::StringRef>>::_Vector_impl" = type { %"struct.std::_Vector_base<llvm::StringRef, std::allocator<llvm::StringRef>>::_Vector_impl_data" }
%"struct.std::_Vector_base<llvm::StringRef, std::allocator<llvm::StringRef>>::_Vector_impl_data" = type { ptr, ptr, ptr }
%"class.std::vector.9" = type { %"struct.std::_Vector_base.10" }
%"struct.std::_Vector_base.10" = type { %"struct.std::_Vector_base<llvm::wasm::WasmDylinkImportInfo, std::allocator<llvm::wasm::WasmDylinkImportInfo>>::_Vector_impl" }
%"struct.std::_Vector_base<llvm::wasm::WasmDylinkImportInfo, std::allocator<llvm::wasm::WasmDylinkImportInfo>>::_Vector_impl" = type { %"struct.std::_Vector_base<llvm::wasm::WasmDylinkImportInfo, std::allocator<llvm::wasm::WasmDylinkImportInfo>>::_Vector_impl_data" }
%"struct.std::_Vector_base<llvm::wasm::WasmDylinkImportInfo, std::allocator<llvm::wasm::WasmDylinkImportInfo>>::_Vector_impl_data" = type { ptr, ptr, ptr }
%"class.std::vector.14" = type { %"struct.std::_Vector_base.15" }
%"struct.std::_Vector_base.15" = type { %"struct.std::_Vector_base<llvm::wasm::WasmDylinkExportInfo, std::allocator<llvm::wasm::WasmDylinkExportInfo>>::_Vector_impl" }
%"struct.std::_Vector_base<llvm::wasm::WasmDylinkExportInfo, std::allocator<llvm::wasm::WasmDylinkExportInfo>>::_Vector_impl" = type { %"struct.std::_Vector_base<llvm::wasm::WasmDylinkExportInfo, std::allocator<llvm::wasm::WasmDylinkExportInfo>>::_Vector_impl_data" }
%"struct.std::_Vector_base<llvm::wasm::WasmDylinkExportInfo, std::allocator<llvm::wasm::WasmDylinkExportInfo>>::_Vector_impl_data" = type { ptr, ptr, ptr }
%"struct.llvm::wasm::WasmProducerInfo" = type { %"class.std::vector.19", %"class.std::vector.19", %"class.std::vector.19" }
%"class.std::vector.19" = type { %"struct.std::_Vector_base.20" }
%"struct.std::_Vector_base.20" = type { %"struct.std::_Vector_base<std::pair<std::__cxx11::basic_string<char>, std::__cxx11::basic_string<char>>, std::allocator<std::pair<std::__cxx11::basic_string<char>, std::__cxx11::basic_string<char>>>>::_Vector_impl" }
%"struct.std::_Vector_base<std::pair<std::__cxx11::basic_string<char>, std::__cxx11::basic_string<char>>, std::allocator<std::pair<std::__cxx11::basic_string<char>, std::__cxx11::basic_string<char>>>>::_Vector_impl" = type { %"struct.std::_Vector_base<std::pair<std::__cxx11::basic_string<char>, std::__cxx11::basic_string<char>>, std::allocator<std::pair<std::__cxx11::basic_string<char>, std::__cxx11::basic_string<char>>>>::_Vector_impl_data" }
%"struct.std::_Vector_base<std::pair<std::__cxx11::basic_string<char>, std::__cxx11::basic_string<char>>, std::allocator<std::pair<std::__cxx11::basic_string<char>, std::__cxx11::basic_string<char>>>>::_Vector_impl_data" = type { ptr, ptr, ptr }
%"class.std::vector.24" = type { %"struct.std::_Vector_base.25" }
%"struct.std::_Vector_base.25" = type { %"struct.std::_Vector_base<llvm::wasm::WasmFeatureEntry, std::allocator<llvm::wasm::WasmFeatureEntry>>::_Vector_impl" }
%"struct.std::_Vector_base<llvm::wasm::WasmFeatureEntry, std::allocator<llvm::wasm::WasmFeatureEntry>>::_Vector_impl" = type { %"struct.std::_Vector_base<llvm::wasm::WasmFeatureEntry, std::allocator<llvm::wasm::WasmFeatureEntry>>::_Vector_impl_data" }
%"struct.std::_Vector_base<llvm::wasm::WasmFeatureEntry, std::allocator<llvm::wasm::WasmFeatureEntry>>::_Vector_impl_data" = type { ptr, ptr, ptr }
%"class.std::vector.29" = type { %"struct.std::_Vector_base.30" }
%"struct.std::_Vector_base.30" = type { %"struct.std::_Vector_base<llvm::wasm::WasmSignature, std::allocator<llvm::wasm::WasmSignature>>::_Vector_impl" }
%"struct.std::_Vector_base<llvm::wasm::WasmSignature, std::allocator<llvm::wasm::WasmSignature>>::_Vector_impl" = type { %"struct.std::_Vector_base<llvm::wasm::WasmSignature, std::allocator<llvm::wasm::WasmSignature>>::_Vector_impl_data" }
%"struct.std::_Vector_base<llvm::wasm::WasmSignature, std::allocator<llvm::wasm::WasmSignature>>::_Vector_impl_data" = type { ptr, ptr, ptr }
%"class.std::vector.34" = type { %"struct.std::_Vector_base.35" }
%"struct.std::_Vector_base.35" = type { %"struct.std::_Vector_base<llvm::wasm::WasmTable, std::allocator<llvm::wasm::WasmTable>>::_Vector_impl" }
%"struct.std::_Vector_base<llvm::wasm::WasmTable, std::allocator<llvm::wasm::WasmTable>>::_Vector_impl" = type { %"struct.std::_Vector_base<llvm::wasm::WasmTable, std::allocator<llvm::wasm::WasmTable>>::_Vector_impl_data" }
%"struct.std::_Vector_base<llvm::wasm::WasmTable, std::allocator<llvm::wasm::WasmTable>>::_Vector_impl_data" = type { ptr, ptr, ptr }
%"class.std::vector.39" = type { %"struct.std::_Vector_base.40" }
%"struct.std::_Vector_base.40" = type { %"struct.std::_Vector_base<llvm::wasm::WasmLimits, std::allocator<llvm::wasm::WasmLimits>>::_Vector_impl" }
%"struct.std::_Vector_base<llvm::wasm::WasmLimits, std::allocator<llvm::wasm::WasmLimits>>::_Vector_impl" = type { %"struct.std::_Vector_base<llvm::wasm::WasmLimits, std::allocator<llvm::wasm::WasmLimits>>::_Vector_impl_data" }
%"struct.std::_Vector_base<llvm::wasm::WasmLimits, std::allocator<llvm::wasm::WasmLimits>>::_Vector_impl_data" = type { ptr, ptr, ptr }
%"class.std::vector.44" = type { %"struct.std::_Vector_base.45" }
%"struct.std::_Vector_base.45" = type { %"struct.std::_Vector_base<llvm::wasm::WasmGlobal, std::allocator<llvm::wasm::WasmGlobal>>::_Vector_impl" }
%"struct.std::_Vector_base<llvm::wasm::WasmGlobal, std::allocator<llvm::wasm::WasmGlobal>>::_Vector_impl" = type { %"struct.std::_Vector_base<llvm::wasm::WasmGlobal, std::allocator<llvm::wasm::WasmGlobal>>::_Vector_impl_data" }
%"struct.std::_Vector_base<llvm::wasm::WasmGlobal, std::allocator<llvm::wasm::WasmGlobal>>::_Vector_impl_data" = type { ptr, ptr, ptr }
%"class.std::vector.49" = type { %"struct.std::_Vector_base.50" }
%"struct.std::_Vector_base.50" = type { %"struct.std::_Vector_base<llvm::wasm::WasmTag, std::allocator<llvm::wasm::WasmTag>>::_Vector_impl" }
%"struct.std::_Vector_base<llvm::wasm::WasmTag, std::allocator<llvm::wasm::WasmTag>>::_Vector_impl" = type { %"struct.std::_Vector_base<llvm::wasm::WasmTag, std::allocator<llvm::wasm::WasmTag>>::_Vector_impl_data" }
%"struct.std::_Vector_base<llvm::wasm::WasmTag, std::allocator<llvm::wasm::WasmTag>>::_Vector_impl_data" = type { ptr, ptr, ptr }
%"class.std::vector.54" = type { %"struct.std::_Vector_base.55" }
%"struct.std::_Vector_base.55" = type { %"struct.std::_Vector_base<llvm::wasm::WasmImport, std::allocator<llvm::wasm::WasmImport>>::_Vector_impl" }
%"struct.std::_Vector_base<llvm::wasm::WasmImport, std::allocator<llvm::wasm::WasmImport>>::_Vector_impl" = type { %"struct.std::_Vector_base<llvm::wasm::WasmImport, std::allocator<llvm::wasm::WasmImport>>::_Vector_impl_data" }
%"struct.std::_Vector_base<llvm::wasm::WasmImport, std::allocator<llvm::wasm::WasmImport>>::_Vector_impl_data" = type { ptr, ptr, ptr }
%"class.std::vector.59" = type { %"struct.std::_Vector_base.60" }
%"struct.std::_Vector_base.60" = type { %"struct.std::_Vector_base<llvm::wasm::WasmExport, std::allocator<llvm::wasm::WasmExport>>::_Vector_impl" }
%"struct.std::_Vector_base<llvm::wasm::WasmExport, std::allocator<llvm::wasm::WasmExport>>::_Vector_impl" = type { %"struct.std::_Vector_base<llvm::wasm::WasmExport, std::allocator<llvm::wasm::WasmExport>>::_Vector_impl_data" }
%"struct.std::_Vector_base<llvm::wasm::WasmExport, std::allocator<llvm::wasm::WasmExport>>::_Vector_impl_data" = type { ptr, ptr, ptr }
%"class.std::vector.64" = type { %"struct.std::_Vector_base.65" }
%"struct.std::_Vector_base.65" = type { %"struct.std::_Vector_base<llvm::wasm::WasmElemSegment, std::allocator<llvm::wasm::WasmElemSegment>>::_Vector_impl" }
%"struct.std::_Vector_base<llvm::wasm::WasmElemSegment, std::allocator<llvm::wasm::WasmElemSegment>>::_Vector_impl" = type { %"struct.std::_Vector_base<llvm::wasm::WasmElemSegment, std::allocator<llvm::wasm::WasmElemSegment>>::_Vector_impl_data" }
%"struct.std::_Vector_base<llvm::wasm::WasmElemSegment, std::allocator<llvm::wasm::WasmElemSegment>>::_Vector_impl_data" = type { ptr, ptr, ptr }
%"class.std::vector.69" = type { %"struct.std::_Vector_base.70" }
%"struct.std::_Vector_base.70" = type { %"struct.std::_Vector_base<llvm::object::WasmSegment, std::allocator<llvm::object::WasmSegment>>::_Vector_impl" }
%"struct.std::_Vector_base<llvm::object::WasmSegment, std::allocator<llvm::object::WasmSegment>>::_Vector_impl" = type { %"struct.std::_Vector_base<llvm::object::WasmSegment, std::allocator<llvm::object::WasmSegment>>::_Vector_impl_data" }
%"struct.std::_Vector_base<llvm::object::WasmSegment, std::allocator<llvm::object::WasmSegment>>::_Vector_impl_data" = type { ptr, ptr, ptr }
%"class.std::optional.74" = type { %"struct.std::_Optional_base.75" }
%"struct.std::_Optional_base.75" = type { %"struct.std::_Optional_payload.77" }
%"struct.std::_Optional_payload.77" = type { %"struct.std::_Optional_payload_base.base.79", [7 x i8] }
%"struct.std::_Optional_payload_base.base.79" = type <{ %"union.std::_Optional_payload_base<unsigned long>::_Storage", i8 }>
%"union.std::_Optional_payload_base<unsigned long>::_Storage" = type { i64 }
%"class.std::vector.82" = type { %"struct.std::_Vector_base.83" }
%"struct.std::_Vector_base.83" = type { %"struct.std::_Vector_base<llvm::wasm::WasmFunction, std::allocator<llvm::wasm::WasmFunction>>::_Vector_impl" }
%"struct.std::_Vector_base<llvm::wasm::WasmFunction, std::allocator<llvm::wasm::WasmFunction>>::_Vector_impl" = type { %"struct.std::_Vector_base<llvm::wasm::WasmFunction, std::allocator<llvm::wasm::WasmFunction>>::_Vector_impl_data" }
%"struct.std::_Vector_base<llvm::wasm::WasmFunction, std::allocator<llvm::wasm::WasmFunction>>::_Vector_impl_data" = type { ptr, ptr, ptr }
%"class.std::vector.87" = type { %"struct.std::_Vector_base.88" }
%"struct.std::_Vector_base.88" = type { %"struct.std::_Vector_base<llvm::object::WasmSymbol, std::allocator<llvm::object::WasmSymbol>>::_Vector_impl" }
%"struct.std::_Vector_base<llvm::object::WasmSymbol, std::allocator<llvm::object::WasmSymbol>>::_Vector_impl" = type { %"struct.std::_Vector_base<llvm::object::WasmSymbol, std::allocator<llvm::object::WasmSymbol>>::_Vector_impl_data" }
%"struct.std::_Vector_base<llvm::object::WasmSymbol, std::allocator<llvm::object::WasmSymbol>>::_Vector_impl_data" = type { ptr, ptr, ptr }
%"class.std::vector.92" = type { %"struct.std::_Vector_base.93" }
%"struct.std::_Vector_base.93" = type { %"struct.std::_Vector_base<llvm::wasm::WasmDebugName, std::allocator<llvm::wasm::WasmDebugName>>::_Vector_impl" }
%"struct.std::_Vector_base<llvm::wasm::WasmDebugName, std::allocator<llvm::wasm::WasmDebugName>>::_Vector_impl" = type { %"struct.std::_Vector_base<llvm::wasm::WasmDebugName, std::allocator<llvm::wasm::WasmDebugName>>::_Vector_impl_data" }
%"struct.std::_Vector_base<llvm::wasm::WasmDebugName, std::allocator<llvm::wasm::WasmDebugName>>::_Vector_impl_data" = type { ptr, ptr, ptr }
%"struct.llvm::wasm::WasmLinkingData" = type { i32, %"class.std::vector.97", %"class.std::vector.4" }
%"class.std::vector.97" = type { %"struct.std::_Vector_base.98" }
%"struct.std::_Vector_base.98" = type { %"struct.std::_Vector_base<llvm::wasm::WasmInitFunc, std::allocator<llvm::wasm::WasmInitFunc>>::_Vector_impl" }
%"struct.std::_Vector_base<llvm::wasm::WasmInitFunc, std::allocator<llvm::wasm::WasmInitFunc>>::_Vector_impl" = type { %"struct.std::_Vector_base<llvm::wasm::WasmInitFunc, std::allocator<llvm::wasm::WasmInitFunc>>::_Vector_impl_data" }
%"struct.std::_Vector_base<llvm::wasm::WasmInitFunc, std::allocator<llvm::wasm::WasmInitFunc>>::_Vector_impl_data" = type { ptr, ptr, ptr }
%struct.anon.185 = type { i32, i32 }
%"union.llvm::object::DataRefImpl" = type { i64 }
%"class.llvm::Expected.208" = type { %union.anon.209, i8, [7 x i8] }
%union.anon.209 = type { %"struct.llvm::AlignedCharArrayUnion.210" }
%"struct.llvm::AlignedCharArrayUnion.210" = type { [16 x i8] }

; Function Attrs: mustprogress nounwind uwtable
define linkonce_odr hidden noundef ptr @_ZN4llvm8ExpectedINS_8ArrayRefIhEEE10getStorageEv(ptr noundef nonnull align 8 dereferenceable(17) %0) #0 comdat align 2 {
  %2 = alloca ptr, align 8
  store ptr %0, ptr %2, align 8
  %3 = load ptr, ptr %2, align 8
  %4 = getelementptr inbounds nuw %"class.llvm::Expected.208", ptr %3, i32 0, i32 0
  ret ptr %4
}

; Function Attrs: mustprogress nounwind uwtable
define linkonce_odr hidden void @_ZN4llvm8ExpectedINS_8ArrayRefIhEEEC2IRKS2_EEOT_PNSt9enable_ifIXsr3stdE16is_convertible_vIS7_S2_EEvE4typeE(ptr noundef nonnull align 8 dereferenceable(17) %0, ptr noundef nonnull align 8 dereferenceable(16) %1, ptr noundef %2) unnamed_addr #0 comdat align 2 {
  %4 = alloca ptr, align 8
  %5 = alloca ptr, align 8
  %6 = alloca ptr, align 8
  store ptr %0, ptr %4, align 8
  store ptr %1, ptr %5, align 8
  store ptr %2, ptr %6, align 8
  %7 = load ptr, ptr %4, align 8
  %8 = getelementptr inbounds nuw %"class.llvm::Expected.208", ptr %7, i32 0, i32 1
  %9 = load i8, ptr %8, align 8
  %10 = and i8 %9, -2
  %11 = or i8 %10, 0
  store i8 %11, ptr %8, align 8
  %12 = call noundef ptr @_ZN4llvm8ExpectedINS_8ArrayRefIhEEE10getStorageEv(ptr noundef nonnull align 8 dereferenceable(17) %7)
  %13 = load ptr, ptr %5, align 8
  call void @llvm.memcpy.p0.p0.i64(ptr align 8 %12, ptr align 8 %13, i64 16, i1 false)
  ret void
}

; Function Attrs: mustprogress nounwind uwtable
define linkonce_odr hidden noundef nonnull align 8 dereferenceable(74) ptr @_ZNKSt6vectorIN4llvm6object11WasmSectionESaIS2_EEixEm(ptr noundef nonnull align 8 dereferenceable(24) %0, i64 noundef %1) #0 comdat align 2 {
  %3 = alloca ptr, align 8
  %4 = alloca i64, align 8
  store ptr %0, ptr %3, align 8
  store i64 %1, ptr %4, align 8
  %5 = load ptr, ptr %3, align 8
  %6 = getelementptr inbounds nuw %"struct.std::_Vector_base", ptr %5, i32 0, i32 0
  %7 = getelementptr inbounds nuw %"struct.std::_Vector_base<llvm::object::WasmSection, std::allocator<llvm::object::WasmSection>>::_Vector_impl_data", ptr %6, i32 0, i32 0
  %8 = load ptr, ptr %7, align 8
  %9 = load i64, ptr %4, align 8
  %10 = getelementptr inbounds %"struct.llvm::object::WasmSection", ptr %8, i64 %9
  ret ptr %10
}

; Function Attrs: mustprogress nounwind uwtable
define dso_local void @_ZNK4llvm6object14WasmObjectFile18getSectionContentsENS0_11DataRefImplE(ptr dead_on_unwind noalias writable sret(%"class.llvm::Expected.208") align 8 %0, ptr noundef nonnull align 8 dereferenceable(684) %1, i64 %2) unnamed_addr #0 align 2 {
  %4 = alloca ptr, align 8
  %5 = alloca %"union.llvm::object::DataRefImpl", align 8
  %6 = alloca ptr, align 8
  %7 = alloca ptr, align 8
  store ptr %0, ptr %4, align 8
  %8 = getelementptr inbounds nuw %"union.llvm::object::DataRefImpl", ptr %5, i32 0, i32 0
  store i64 %2, ptr %8, align 8
  store ptr %1, ptr %6, align 8
  %9 = load ptr, ptr %6, align 8
  %10 = getelementptr inbounds nuw %"class.llvm::object::WasmObjectFile", ptr %9, i32 0, i32 2
  %11 = getelementptr inbounds nuw %struct.anon.185, ptr %5, i32 0, i32 0
  %12 = load i32, ptr %11, align 8
  %13 = zext i32 %12 to i64
  %14 = call noundef nonnull align 8 dereferenceable(74) ptr @_ZNKSt6vectorIN4llvm6object11WasmSectionESaIS2_EEixEm(ptr noundef nonnull align 8 dereferenceable(24) %10, i64 noundef %13) #12
  store ptr %14, ptr %7, align 8
  %15 = load ptr, ptr %7, align 8
  %16 = getelementptr inbounds nuw %"struct.llvm::object::WasmSection", ptr %15, i32 0, i32 5
  call void @_ZN4llvm8ExpectedINS_8ArrayRefIhEEEC2IRKS2_EEOT_PNSt9enable_ifIXsr3stdE16is_convertible_vIS7_S2_EEvE4typeE(ptr noundef nonnull align 8 dereferenceable(17) %0, ptr noundef nonnull align 8 dereferenceable(16) %16, ptr noundef null)
  ret void
}