; Function Attrs: mustprogress nofree norecurse nosync nounwind willreturn memory(readwrite, inaccessiblemem: none) uwtable
define dso_local void @_ZNK4llvm6object14WasmObjectFile18getSectionContentsENS0_11DataRefImplE(ptr dead_on_unwind noalias nocapture writable sret(%"class.llvm::Expected.208") align 8 %0, ptr nocapture noundef nonnull readonly align 8 dereferenceable(684) %1, i64 %2) unnamed_addr #10 align 2 {
  %4 = getelementptr inbounds nuw i8, ptr %1, i64 72
  %5 = and i64 %2, 4294967295
  %6 = load ptr, ptr %4, align 8
  %7 = getelementptr inbounds %"struct.llvm::object::WasmSection", ptr %6, i64 %5, i32 5
  %8 = getelementptr inbounds nuw i8, ptr %0, i64 16
  %9 = load i8, ptr %8, align 8
  %10 = and i8 %9, -2
  store i8 %10, ptr %8, align 8
  tail call void @llvm.memcpy.p0.p0.i64(ptr noundef nonnull align 8 dereferenceable(16) %0, ptr noundef nonnull align 8 dereferenceable(16) %7, i64 16, i1 false)
  ret void
}